target datalayout = "e-m:e-p270:32:32-p271:32:32-p272:64:64-i64:64-i128:128-f80:128-n8:16:32:64-S128"
target triple = "x86_64-pc-linux-gnu"

%struct.notes_tree = type { ptr, ptr, ptr, ptr, ptr, ptr, i32, i32 }
%struct.option = type { i32, i32, ptr, ptr, ptr, ptr, i32, ptr, i64, ptr, i64, ptr }

@.str.11 = private unnamed_addr constant [6 x i8] c"prune\00", align 1
@.str.15 = private unnamed_addr constant [19 x i8] c"too many arguments\00", align 1
@the_repository = external global ptr, align 8
@default_notes_tree = external global %struct.notes_tree, align 8
@.str.19 = private unnamed_addr constant [12 x i8] c"refs/notes/\00", align 1
@.str.20 = private unnamed_addr constant [52 x i8] c"refusing to %s notes in %s (outside of refs/notes/)\00", align 1
@.str.92 = private unnamed_addr constant [8 x i8] c"verbose\00", align 1
@.str.139 = private unnamed_addr constant [8 x i8] c"dry-run\00", align 1
@.str.140 = private unnamed_addr constant [25 x i8] c"do not remove, show only\00", align 1
@.str.141 = private unnamed_addr constant [20 x i8] c"report pruned notes\00", align 1
@git_notes_prune_usage = internal constant [2 x ptr] [ptr @.str.143, ptr null], align 16
@.str.142 = private unnamed_addr constant [35 x i8] c"Notes removed by 'git notes prune'\00", align 1

; Function Attrs: nounwind uwtable
define internal ptr @init_notes_check(ptr noundef %0, i32 noundef %1) #0 {
  %3 = alloca ptr, align 8
  %4 = alloca i32, align 4
  %5 = alloca ptr, align 8
  %6 = alloca ptr, align 8
  store ptr %0, ptr %3, align 8, !tbaa !11
  store i32 %1, ptr %4, align 4, !tbaa !4
  call void @llvm.lifetime.start.p0(i64 8, ptr %5) #11
  call void @llvm.lifetime.start.p0(i64 8, ptr %6) #11
  %7 = load i32, ptr %4, align 4, !tbaa !4
  call void @init_notes(ptr noundef null, ptr noundef null, ptr noundef null, i32 noundef %7)
  store ptr @default_notes_tree, ptr %5, align 8, !tbaa !32
  %8 = load i32, ptr %4, align 4, !tbaa !4
  %9 = and i32 %8, 2
  %10 = icmp ne i32 %9, 0
  br i1 %10, label %11, label %15

11:                                               ; preds = %2
  %12 = load ptr, ptr %5, align 8, !tbaa !32
  %13 = getelementptr inbounds nuw %struct.notes_tree, ptr %12, i32 0, i32 4
  %14 = load ptr, ptr %13, align 8, !tbaa !61
  br label %19

15:                                               ; preds = %2
  %16 = load ptr, ptr %5, align 8, !tbaa !32
  %17 = getelementptr inbounds nuw %struct.notes_tree, ptr %16, i32 0, i32 3
  %18 = load ptr, ptr %17, align 8, !tbaa !65
  br label %19

19:                                               ; preds = %15, %11
  %20 = phi ptr [ %14, %11 ], [ %18, %15 ]
  store ptr %20, ptr %6, align 8, !tbaa !11
  %21 = load ptr, ptr %6, align 8, !tbaa !11
  %22 = call i32 @starts_with(ptr noundef %21, ptr noundef @.str.19)
  %23 = icmp ne i32 %22, 0
  br i1 %23, label %28, label %24

24:                                               ; preds = %19
  %25 = call ptr @_(ptr noundef @.str.20)
  %26 = load ptr, ptr %3, align 8, !tbaa !11
  %27 = load ptr, ptr %6, align 8, !tbaa !11
  call void (ptr, ...) @die(ptr noundef %25, ptr noundef %26, ptr noundef %27) #12
  unreachable

28:                                               ; preds = %19
  %29 = load ptr, ptr %5, align 8, !tbaa !32
  call void @llvm.lifetime.end.p0(i64 8, ptr %6) #11
  call void @llvm.lifetime.end.p0(i64 8, ptr %5) #11
  ret ptr %29
}

; Function Attrs: inlinehint nounwind uwtable
define internal i32 @const_error() #3 {
  ret i32 -1
}

; Function Attrs: nounwind uwtable
define internal i32 @prune(i32 noundef %0, ptr noundef %1, ptr noundef %2, ptr noundef %3) #0 {
  %5 = alloca i32, align 4
  %6 = alloca ptr, align 8
  %7 = alloca ptr, align 8
  %8 = alloca ptr, align 8
  %9 = alloca ptr, align 8
  %10 = alloca i32, align 4
  %11 = alloca i32, align 4
  %12 = alloca [3 x %struct.option], align 16
  store i32 %0, ptr %5, align 4, !tbaa !4
  store ptr %1, ptr %6, align 8, !tbaa !8
  store ptr %2, ptr %7, align 8, !tbaa !11
  store ptr %3, ptr %8, align 8, !tbaa !13
  call void @llvm.lifetime.start.p0(i64 8, ptr %9) #11
  call void @llvm.lifetime.start.p0(i64 4, ptr %10) #11
  store i32 0, ptr %10, align 4, !tbaa !4
  call void @llvm.lifetime.start.p0(i64 4, ptr %11) #11
  store i32 0, ptr %11, align 4, !tbaa !4
  call void @llvm.lifetime.start.p0(i64 264, ptr %12) #11
  %13 = getelementptr inbounds nuw %struct.option, ptr %12, i32 0, i32 0
  store i32 9, ptr %13, align 8, !tbaa !16
  %14 = getelementptr inbounds nuw %struct.option, ptr %12, i32 0, i32 1
  store i32 110, ptr %14, align 4, !tbaa !19
  %15 = getelementptr inbounds nuw %struct.option, ptr %12, i32 0, i32 2
  store ptr @.str.139, ptr %15, align 8, !tbaa !20
  %16 = getelementptr inbounds nuw %struct.option, ptr %12, i32 0, i32 3
  store ptr %10, ptr %16, align 8, !tbaa !21
  %17 = getelementptr inbounds nuw %struct.option, ptr %12, i32 0, i32 4
  store ptr null, ptr %17, align 8, !tbaa !22
  %18 = getelementptr inbounds nuw %struct.option, ptr %12, i32 0, i32 5
  store ptr @.str.140, ptr %18, align 8, !tbaa !23
  %19 = getelementptr inbounds nuw %struct.option, ptr %12, i32 0, i32 6
  store i32 2, ptr %19, align 8, !tbaa !24
  %20 = getelementptr i8, ptr %12, i64 44
  call void @llvm.memset.p0.i64(ptr align 4 %20, i8 0, i64 4, i1 false)
  %21 = getelementptr inbounds nuw %struct.option, ptr %12, i32 0, i32 7
  store ptr null, ptr %21, align 8, !tbaa !25
  %22 = getelementptr inbounds nuw %struct.option, ptr %12, i32 0, i32 8
  store i64 1, ptr %22, align 8, !tbaa !26
  %23 = getelementptr inbounds nuw %struct.option, ptr %12, i32 0, i32 9
  store ptr null, ptr %23, align 8, !tbaa !27
  %24 = getelementptr inbounds nuw %struct.option, ptr %12, i32 0, i32 10
  store i64 0, ptr %24, align 8, !tbaa !28
  %25 = getelementptr inbounds nuw %struct.option, ptr %12, i32 0, i32 11
  store ptr null, ptr %25, align 8, !tbaa !29
  %26 = getelementptr inbounds %struct.option, ptr %12, i64 1
  %27 = getelementptr inbounds nuw %struct.option, ptr %26, i32 0, i32 0
  store i32 8, ptr %27, align 8, !tbaa !16
  %28 = getelementptr inbounds nuw %struct.option, ptr %26, i32 0, i32 1
  store i32 118, ptr %28, align 4, !tbaa !19
  %29 = getelementptr inbounds nuw %struct.option, ptr %26, i32 0, i32 2
  store ptr @.str.92, ptr %29, align 8, !tbaa !20
  %30 = getelementptr inbounds nuw %struct.option, ptr %26, i32 0, i32 3
  store ptr %11, ptr %30, align 8, !tbaa !21
  %31 = getelementptr inbounds nuw %struct.option, ptr %26, i32 0, i32 4
  store ptr null, ptr %31, align 8, !tbaa !22
  %32 = getelementptr inbounds nuw %struct.option, ptr %26, i32 0, i32 5
  store ptr @.str.141, ptr %32, align 8, !tbaa !23
  %33 = getelementptr inbounds nuw %struct.option, ptr %26, i32 0, i32 6
  store i32 2, ptr %33, align 8, !tbaa !24
  %34 = getelementptr i8, ptr %26, i64 44
  call void @llvm.memset.p0.i64(ptr align 4 %34, i8 0, i64 4, i1 false)
  %35 = getelementptr inbounds nuw %struct.option, ptr %26, i32 0, i32 7
  store ptr null, ptr %35, align 8, !tbaa !25
  %36 = getelementptr inbounds nuw %struct.option, ptr %26, i32 0, i32 8
  store i64 0, ptr %36, align 8, !tbaa !26
  %37 = getelementptr inbounds nuw %struct.option, ptr %26, i32 0, i32 9
  store ptr null, ptr %37, align 8, !tbaa !27
  %38 = getelementptr inbounds nuw %struct.option, ptr %26, i32 0, i32 10
  store i64 0, ptr %38, align 8, !tbaa !28
  %39 = getelementptr inbounds nuw %struct.option, ptr %26, i32 0, i32 11
  store ptr null, ptr %39, align 8, !tbaa !29
  %40 = getelementptr inbounds %struct.option, ptr %12, i64 2
  call void @llvm.memset.p0.i64(ptr align 8 %40, i8 0, i64 88, i1 false)
  %41 = getelementptr inbounds nuw %struct.option, ptr %40, i32 0, i32 0
  store i32 0, ptr %41, align 8, !tbaa !16
  %42 = load i32, ptr %5, align 4, !tbaa !4
  %43 = load ptr, ptr %6, align 8, !tbaa !8
  %44 = load ptr, ptr %7, align 8, !tbaa !11
  %45 = getelementptr inbounds [3 x %struct.option], ptr %12, i64 0, i64 0
  %46 = call i32 @parse_options(i32 noundef %42, ptr noundef %43, ptr noundef %44, ptr noundef %45, ptr noundef @git_notes_prune_usage, i32 noundef 0)
  store i32 %46, ptr %5, align 4, !tbaa !4
  %47 = load i32, ptr %5, align 4, !tbaa !4
  %48 = icmp ne i32 %47, 0
  br i1 %48, label %49, label %54

49:                                               ; preds = %4
  %50 = call ptr @_(ptr noundef @.str.15)
  %51 = call i32 (ptr, ...) @error(ptr noundef %50)
  %52 = call i32 @const_error()
  %53 = getelementptr inbounds [3 x %struct.option], ptr %12, i64 0, i64 0
  call void @usage_with_options(ptr noundef @git_notes_prune_usage, ptr noundef %53) #12
  unreachable

54:                                               ; preds = %4
  %55 = call ptr @init_notes_check(ptr noundef @.str.11, i32 noundef 2)
  store ptr %55, ptr %9, align 8, !tbaa !32
  %56 = load ptr, ptr %9, align 8, !tbaa !32
  %57 = load i32, ptr %11, align 4, !tbaa !4
  %58 = icmp ne i32 %57, 0
  %59 = select i1 %58, i32 1, i32 0
  %60 = load i32, ptr %10, align 4, !tbaa !4
  %61 = icmp ne i32 %60, 0
  %62 = select i1 %61, i32 3, i32 0
  %63 = or i32 %59, %62
  call void @prune_notes(ptr noundef %56, i32 noundef %63)
  %64 = load i32, ptr %10, align 4, !tbaa !4
  %65 = icmp ne i32 %64, 0
  br i1 %65, label %69, label %66

66:                                               ; preds = %54
  %67 = load ptr, ptr @the_repository, align 8, !tbaa !13
  %68 = load ptr, ptr %9, align 8, !tbaa !32
  call void @commit_notes(ptr noundef %67, ptr noundef %68, ptr noundef @.str.142)
  br label %69

69:                                               ; preds = %66, %54
  %70 = load ptr, ptr %9, align 8, !tbaa !32
  call void @free_notes(ptr noundef %70)
  call void @llvm.lifetime.end.p0(i64 264, ptr %12) #11
  call void @llvm.lifetime.end.p0(i64 4, ptr %11) #11
  call void @llvm.lifetime.end.p0(i64 4, ptr %10) #11
  call void @llvm.lifetime.end.p0(i64 8, ptr %9) #11
  ret i32 0
}