; Function Attrs: nounwind uwtable
define internal noundef i32 @prune(i32 noundef %0, ptr noundef %1, ptr noundef %2, ptr readnone captures(none) %3) #0 {
  %5 = alloca i32, align 4
  %6 = alloca i32, align 4
  %7 = alloca [3 x %struct.option], align 16
  call void @llvm.lifetime.start.p0(i64 4, ptr nonnull %5) #16
  store i32 0, ptr %5, align 4, !tbaa !24
  call void @llvm.lifetime.start.p0(i64 4, ptr nonnull %6) #16
  store i32 0, ptr %6, align 4, !tbaa !24
  call void @llvm.lifetime.start.p0(i64 264, ptr nonnull %7) #16
  store i32 9, ptr %7, align 16, !tbaa !10
  %8 = getelementptr inbounds nuw i8, ptr %7, i64 4
  store i32 110, ptr %8, align 4, !tbaa !14
  %9 = getelementptr inbounds nuw i8, ptr %7, i64 8
  store ptr @.str.139, ptr %9, align 8, !tbaa !15
  %10 = getelementptr inbounds nuw i8, ptr %7, i64 16
  store ptr %5, ptr %10, align 16, !tbaa !16
  %11 = getelementptr inbounds nuw i8, ptr %7, i64 24
  store ptr null, ptr %11, align 8, !tbaa !17
  %12 = getelementptr inbounds nuw i8, ptr %7, i64 32
  store ptr @.str.140, ptr %12, align 16, !tbaa !18
  %13 = getelementptr inbounds nuw i8, ptr %7, i64 40
  store i32 2, ptr %13, align 8, !tbaa !25
  %14 = getelementptr inbounds nuw i8, ptr %7, i64 44
  store i32 0, ptr %14, align 4
  %15 = getelementptr inbounds nuw i8, ptr %7, i64 48
  store ptr null, ptr %15, align 16, !tbaa !26
  %16 = getelementptr inbounds nuw i8, ptr %7, i64 56
  store i64 1, ptr %16, align 8, !tbaa !27
  %17 = getelementptr inbounds nuw i8, ptr %7, i64 64
  %18 = getelementptr inbounds nuw i8, ptr %7, i64 88
  call void @llvm.memset.p0.i64(ptr noundef nonnull align 16 dereferenceable(24) %17, i8 0, i64 24, i1 false)
  store i32 8, ptr %18, align 8, !tbaa !10
  %19 = getelementptr inbounds nuw i8, ptr %7, i64 92
  store i32 118, ptr %19, align 4, !tbaa !14
  %20 = getelementptr inbounds nuw i8, ptr %7, i64 96
  store ptr @.str.92, ptr %20, align 16, !tbaa !15
  %21 = getelementptr inbounds nuw i8, ptr %7, i64 104
  store ptr %6, ptr %21, align 8, !tbaa !16
  %22 = getelementptr inbounds nuw i8, ptr %7, i64 112
  store ptr null, ptr %22, align 16, !tbaa !17
  %23 = getelementptr inbounds nuw i8, ptr %7, i64 120
  store ptr @.str.141, ptr %23, align 8, !tbaa !18
  %24 = getelementptr inbounds nuw i8, ptr %7, i64 128
  store i32 2, ptr %24, align 16, !tbaa !25
  %25 = getelementptr inbounds nuw i8, ptr %7, i64 132
  call void @llvm.memset.p0.i64(ptr noundef nonnull align 4 dereferenceable(132) %25, i8 0, i64 132, i1 false)
  %26 = call i32 @parse_options(i32 noundef %0, ptr noundef %1, ptr noundef %2, ptr noundef nonnull %7, ptr noundef nonnull @git_notes_prune_usage, i32 noundef 0) #16
  %.not = icmp eq i32 %26, 0
  br i1 %.not, label %30, label %27

27:                                               ; preds = %4
  %28 = call fastcc ptr @_(ptr noundef nonnull @.str.15)
  %29 = call i32 (ptr, ...) @error(ptr noundef %28) #16
  call void @usage_with_options(ptr noundef nonnull @git_notes_prune_usage, ptr noundef nonnull %7) #17
  unreachable

30:                                               ; preds = %4
  call void @init_notes(ptr noundef null, ptr noundef null, ptr noundef null, i32 noundef 2) #16
  %.val8.i = load ptr, ptr getelementptr inbounds nuw (i8, ptr @default_notes_tree, i64 32), align 8
  %31 = call i32 @starts_with(ptr noundef %.val8.i, ptr noundef nonnull @.str.19) #16
  %.not7.i = icmp eq i32 %31, 0
  br i1 %.not7.i, label %32, label %init_notes_check.exit

32:                                               ; preds = %30
  %33 = call fastcc ptr @_(ptr noundef nonnull @.str.20)
  call void (ptr, ...) @die(ptr noundef %33, ptr noundef nonnull @.str.11, ptr noundef %.val8.i) #17
  unreachable

init_notes_check.exit:                            ; preds = %30
  %34 = load i32, ptr %6, align 4, !tbaa !24
  %.not6 = icmp ne i32 %34, 0
  %35 = zext i1 %.not6 to i32
  %36 = load i32, ptr %5, align 4, !tbaa !24
  %.not7 = icmp eq i32 %36, 0
  %37 = select i1 %.not7, i32 0, i32 3
  %38 = or i32 %37, %35
  call void @prune_notes(ptr noundef nonnull @default_notes_tree, i32 noundef %38) #16
  %39 = load i32, ptr %5, align 4, !tbaa !24
  %.not8 = icmp eq i32 %39, 0
  br i1 %.not8, label %40, label %42

40:                                               ; preds = %init_notes_check.exit
  %41 = load ptr, ptr @the_repository, align 8, !tbaa !20
  call void @commit_notes(ptr noundef %41, ptr noundef nonnull @default_notes_tree, ptr noundef nonnull @.str.142) #16
  br label %42

42:                                               ; preds = %40, %init_notes_check.exit
  call void @free_notes(ptr noundef nonnull @default_notes_tree) #16
  call void @llvm.lifetime.end.p0(i64 264, ptr nonnull %7) #16
  call void @llvm.lifetime.end.p0(i64 4, ptr nonnull %6) #16
  call void @llvm.lifetime.end.p0(i64 4, ptr nonnull %5) #16
  ret i32 0
}